target datalayout = "e-m:e-p270:32:32-p271:32:32-p272:64:64-i64:64-i128:128-f80:128-n8:16:32:64-S128"
target triple = "x86_64-unknown-linux-gnu"

%"class.v8::Maybe" = type { i8, %"class.std::__cxx11::basic_string" }
%"class.std::__cxx11::basic_string" = type { %"struct.std::__cxx11::basic_string<char>::_Alloc_hider", i64, %union.anon }
%"struct.std::__cxx11::basic_string<char>::_Alloc_hider" = type { ptr }
%union.anon = type { i64, [8 x i8] }
%"class.v8::Local" = type { %"class.v8::LocalBase" }
%"class.v8::LocalBase" = type { %"class.v8::IndirectHandleBase" }
%"class.v8::IndirectHandleBase" = type { ptr }
%"class.v8::MaybeLocal" = type { %"class.v8::Local" }
%"class.node::Utf8Value" = type { %"class.node::MaybeStackBuffer.3" }
%"class.node::MaybeStackBuffer.3" = type { i64, i64, ptr, [1024 x i8] }
%"class.v8::Local.4" = type { %"class.v8::LocalBase.5" }
%"class.v8::LocalBase.5" = type { %"class.v8::IndirectHandleBase" }

; Function Attrs: mustprogress nounwind uwtable
define linkonce_odr dso_local noundef zeroext i1 @_ZNK4node16MaybeStackBufferIcLm1024EE13IsInvalidatedEv(ptr noundef nonnull align 8 dereferenceable(1048) %this) #4 comdat align 2 {
entry:
  %this.addr = alloca ptr, align 8
  store ptr %this, ptr %this.addr, align 8
  %this1 = load ptr, ptr %this.addr, align 8
  %buf_ = getelementptr inbounds %"class.node::MaybeStackBuffer.3", ptr %this1, i32 0, i32 2
  %0 = load ptr, ptr %buf_, align 8
  %cmp = icmp eq ptr %0, null
  ret i1 %cmp
}

; Function Attrs: mustprogress nounwind uwtable
define linkonce_odr dso_local noundef zeroext i1 @_ZNK4node16MaybeStackBufferIcLm1024EE11IsAllocatedEv(ptr noundef nonnull align 8 dereferenceable(1048) %this) #4 comdat align 2 {
entry:
  %this.addr = alloca ptr, align 8
  store ptr %this, ptr %this.addr, align 8
  %this1 = load ptr, ptr %this.addr, align 8
  %call = call noundef zeroext i1 @_ZNK4node16MaybeStackBufferIcLm1024EE13IsInvalidatedEv(ptr noundef nonnull align 8 dereferenceable(1048) %this1)
  br i1 %call, label %land.end, label %land.rhs

land.rhs:                                         ; preds = %entry
  %buf_ = getelementptr inbounds %"class.node::MaybeStackBuffer.3", ptr %this1, i32 0, i32 2
  %0 = load ptr, ptr %buf_, align 8
  %buf_st_ = getelementptr inbounds %"class.node::MaybeStackBuffer.3", ptr %this1, i32 0, i32 3
  %arraydecay = getelementptr inbounds [1024 x i8], ptr %buf_st_, i64 0, i64 0
  %cmp = icmp ne ptr %0, %arraydecay
  br label %land.end

land.end:                                         ; preds = %land.rhs, %entry
  %1 = phi i1 [ false, %entry ], [ %cmp, %land.rhs ]
  ret i1 %1
}

; Function Attrs: mustprogress nounwind uwtable
define linkonce_odr dso_local void @_ZN4node16MaybeStackBufferIcLm1024EED2Ev(ptr noundef nonnull align 8 dereferenceable(1048) %this) unnamed_addr #4 comdat align 2 {
entry:
  %this.addr = alloca ptr, align 8
  store ptr %this, ptr %this.addr, align 8
  %this1 = load ptr, ptr %this.addr, align 8
  %call = call noundef zeroext i1 @_ZNK4node16MaybeStackBufferIcLm1024EE11IsAllocatedEv(ptr noundef nonnull align 8 dereferenceable(1048) %this1)
  br i1 %call, label %if.then, label %if.end

if.then:                                          ; preds = %entry
  %buf_ = getelementptr inbounds %"class.node::MaybeStackBuffer.3", ptr %this1, i32 0, i32 2
  %0 = load ptr, ptr %buf_, align 8
  call void @free(ptr noundef %0) #3
  br label %if.end

if.end:                                           ; preds = %if.then, %entry
  ret void
}

; Function Attrs: mustprogress nounwind uwtable
define linkonce_odr dso_local void @_ZN4node9Utf8ValueD2Ev(ptr noundef nonnull align 8 dereferenceable(1048) %this) unnamed_addr #4 comdat align 2 {
entry:
  %this.addr = alloca ptr, align 8
  store ptr %this, ptr %this.addr, align 8
  %this1 = load ptr, ptr %this.addr, align 8
  call void @_ZN4node16MaybeStackBufferIcLm1024EED2Ev(ptr noundef nonnull align 8 dereferenceable(1048) %this1) #3
  ret void
}

; Function Attrs: mustprogress nounwind uwtable
define linkonce_odr dso_local void @_ZN2v85MaybeINSt7__cxx1112basic_stringIcSt11char_traitsIcESaIcEEEED2Ev(ptr noundef nonnull align 8 dereferenceable(40) %this) unnamed_addr #4 comdat align 2 {
entry:
  %this.addr = alloca ptr, align 8
  store ptr %this, ptr %this.addr, align 8
  %this1 = load ptr, ptr %this.addr, align 8
  %value_ = getelementptr inbounds %"class.v8::Maybe", ptr %this1, i32 0, i32 1
  call void @_ZNSt7__cxx1112basic_stringIcSt11char_traitsIcESaIcEED1Ev(ptr noundef nonnull align 8 dereferenceable(32) %value_) #3
  ret void
}

; Function Attrs: mustprogress nounwind uwtable
define linkonce_odr dso_local noundef ptr @_ZN4node16MaybeStackBufferIcLm1024EEdeEv(ptr noundef nonnull align 8 dereferenceable(1048) %this) #4 comdat align 2 {
entry:
  %this.addr = alloca ptr, align 8
  store ptr %this, ptr %this.addr, align 8
  %this1 = load ptr, ptr %this.addr, align 8
  %buf_ = getelementptr inbounds %"class.node::MaybeStackBuffer.3", ptr %this1, i32 0, i32 2
  %0 = load ptr, ptr %buf_, align 8
  ret ptr %0
}

; Function Attrs: mustprogress nounwind uwtable
define dso_local ptr @_ZNK4node10MapKVStore3GetEPN2v87IsolateENS1_5LocalINS1_6StringEEE(ptr noundef nonnull align 8 dereferenceable(104) %this, ptr noundef %isolate, ptr %key.coerce) unnamed_addr #4 align 2 {
entry:
  %this.addr.i41 = alloca ptr, align 8
  %other.addr.i = alloca ptr, align 8
  %this.addr.i.i37 = alloca ptr, align 8
  %this.addr.i38 = alloca ptr, align 8
  %that.i34 = alloca %"class.v8::Local", align 8
  %this.addr.i35 = alloca ptr, align 8
  %this.addr.i32 = alloca ptr, align 8
  %this.addr.i29 = alloca ptr, align 8
  %this.addr.i.i = alloca ptr, align 8
  %result.ptr.i = alloca ptr, align 8
  %this.addr.i28 = alloca ptr, align 8
  %that.i = alloca %"class.v8::Local", align 8
  %this.addr.i = alloca ptr, align 8
  %retval = alloca %"class.v8::MaybeLocal", align 8
  %key = alloca %"class.v8::Local", align 8
  %this.addr = alloca ptr, align 8
  %isolate.addr = alloca ptr, align 8
  %str = alloca %"class.node::Utf8Value", align 8
  %agg.tmp = alloca %"class.v8::Local.4", align 8
  %agg.tmp4 = alloca %"class.v8::Local", align 8
  %value = alloca %"class.v8::Maybe", align 8
  %agg.tmp12 = alloca %"class.v8::Local", align 8
  %cleanup.dest.slot = alloca i32, align 4
  %val = alloca %"class.std::__cxx11::basic_string", align 8
  %coerce.dive = getelementptr inbounds %"class.v8::Local", ptr %key, i32 0, i32 0
  %coerce.dive1 = getelementptr inbounds %"class.v8::LocalBase", ptr %coerce.dive, i32 0, i32 0
  %coerce.dive2 = getelementptr inbounds %"class.v8::IndirectHandleBase", ptr %coerce.dive1, i32 0, i32 0
  store ptr %key.coerce, ptr %coerce.dive2, align 8
  store ptr %this, ptr %this.addr, align 8
  store ptr %isolate, ptr %isolate.addr, align 8
  %this3 = load ptr, ptr %this.addr, align 8
  %0 = load ptr, ptr %isolate.addr, align 8
  call void @llvm.memcpy.p0.p0.i64(ptr align 8 %agg.tmp4, ptr align 8 %key, i64 8, i1 false)
  %coerce.dive5 = getelementptr inbounds %"class.v8::Local", ptr %agg.tmp4, i32 0, i32 0
  %coerce.dive6 = getelementptr inbounds %"class.v8::LocalBase", ptr %coerce.dive5, i32 0, i32 0
  %coerce.dive7 = getelementptr inbounds %"class.v8::IndirectHandleBase", ptr %coerce.dive6, i32 0, i32 0
  %1 = load ptr, ptr %coerce.dive7, align 8
  store ptr %1, ptr %that.i, align 8
  store ptr %agg.tmp, ptr %this.addr.i, align 8
  %this3.i = load ptr, ptr %this.addr.i, align 8
  store ptr %this3.i, ptr %this.addr.i41, align 8
  store ptr %that.i, ptr %other.addr.i, align 8
  %this1.i42 = load ptr, ptr %this.addr.i41, align 8
  %2 = load ptr, ptr %other.addr.i, align 8
  call void @llvm.memcpy.p0.p0.i64(ptr align 8 %this1.i42, ptr align 8 %2, i64 8, i1 false)
  %coerce.dive8 = getelementptr inbounds %"class.v8::Local.4", ptr %agg.tmp, i32 0, i32 0
  %coerce.dive9 = getelementptr inbounds %"class.v8::LocalBase.5", ptr %coerce.dive8, i32 0, i32 0
  %coerce.dive10 = getelementptr inbounds %"class.v8::IndirectHandleBase", ptr %coerce.dive9, i32 0, i32 0
  %3 = load ptr, ptr %coerce.dive10, align 8
  call void @_ZN4node9Utf8ValueC1EPN2v87IsolateENS1_5LocalINS1_5ValueEEE(ptr noundef nonnull align 8 dereferenceable(1048) %str, ptr noundef %0, ptr %3)
  %call = call noundef ptr @_ZN4node16MaybeStackBufferIcLm1024EEdeEv(ptr noundef nonnull align 8 dereferenceable(1048) %str)
  call void @_ZNK4node10MapKVStore3GetB5cxx11EPKc(ptr sret(%"class.v8::Maybe") align 8 %value, ptr noundef nonnull align 8 dereferenceable(104) %this3, ptr noundef %call)
  store ptr %value, ptr %this.addr.i29, align 8
  %this1.i30 = load ptr, ptr %this.addr.i29, align 8
  %4 = load i8, ptr %this1.i30, align 8
  %tobool.i = trunc i8 %4 to i1
  %lnot.i31 = xor i1 %tobool.i, true
  br i1 %lnot.i31, label %if.then, label %if.end

if.then:                                          ; preds = %entry
  call void @llvm.memset.p0.i64(ptr align 8 %agg.tmp12, i8 0, i64 8, i1 false)
  store ptr %agg.tmp12, ptr %this.addr.i32, align 8
  %this1.i33 = load ptr, ptr %this.addr.i32, align 8
  store ptr %this1.i33, ptr %this.addr.i38, align 8
  %this1.i39 = load ptr, ptr %this.addr.i38, align 8
  store ptr %this1.i39, ptr %this.addr.i.i37, align 8
  %this1.i.i40 = load ptr, ptr %this.addr.i.i37, align 8
  store ptr null, ptr %this1.i.i40, align 8
  %coerce.dive13 = getelementptr inbounds %"class.v8::Local", ptr %agg.tmp12, i32 0, i32 0
  %coerce.dive14 = getelementptr inbounds %"class.v8::LocalBase", ptr %coerce.dive13, i32 0, i32 0
  %coerce.dive15 = getelementptr inbounds %"class.v8::IndirectHandleBase", ptr %coerce.dive14, i32 0, i32 0
  %5 = load ptr, ptr %coerce.dive15, align 8
  store ptr %5, ptr %that.i34, align 8
  store ptr %retval, ptr %this.addr.i35, align 8
  %this3.i36 = load ptr, ptr %this.addr.i35, align 8
  call void @llvm.memcpy.p0.p0.i64(ptr align 8 %this3.i36, ptr align 8 %that.i34, i64 8, i1 false)
  store i32 1, ptr %cleanup.dest.slot, align 4
  br label %cleanup

if.end:                                           ; preds = %entry
  call void @llvm.experimental.noalias.scope.decl(metadata !11)
  store ptr %val, ptr %result.ptr.i, align 8, !noalias !11
  store ptr %value, ptr %this.addr.i28, align 8, !noalias !11
  %this1.i = load ptr, ptr %this.addr.i28, align 8, !noalias !11
  store ptr %this1.i, ptr %this.addr.i.i, align 8, !noalias !11
  %this1.i.i = load ptr, ptr %this.addr.i.i, align 8, !noalias !11
  %6 = load i8, ptr %this1.i.i, align 8
  %tobool.i.i = trunc i8 %6 to i1
  %lnot3.i = xor i1 %tobool.i.i, true
  br i1 %lnot3.i, label %if.then.i, label %_ZNKR2v85MaybeINSt7__cxx1112basic_stringIcSt11char_traitsIcESaIcEEEE8FromJustEv.exit

if.then.i:                                        ; preds = %if.end
  call void @_ZN2v812api_internal17FromJustIsNothingEv() #3
  br label %_ZNKR2v85MaybeINSt7__cxx1112basic_stringIcSt11char_traitsIcESaIcEEEE8FromJustEv.exit

_ZNKR2v85MaybeINSt7__cxx1112basic_stringIcSt11char_traitsIcESaIcEEEE8FromJustEv.exit: ; preds = %if.then.i, %if.end
  %value_.i = getelementptr inbounds %"class.v8::Maybe", ptr %this1.i, i32 0, i32 1
  call void @_ZNSt7__cxx1112basic_stringIcSt11char_traitsIcESaIcEEC1ERKS4_(ptr noundef nonnull align 8 dereferenceable(32) %val, ptr noundef nonnull align 8 dereferenceable(32) %value_.i) #3
  %7 = load ptr, ptr %isolate.addr, align 8
  %call16 = call noundef ptr @_ZNSt7__cxx1112basic_stringIcSt11char_traitsIcESaIcEE4dataEv(ptr noundef nonnull align 8 dereferenceable(32) %val) #3
  %call17 = call noundef i64 @_ZNKSt7__cxx1112basic_stringIcSt11char_traitsIcESaIcEE4sizeEv(ptr noundef nonnull align 8 dereferenceable(32) %val) #3
  %conv = trunc i64 %call17 to i32
  %call18 = call ptr @_ZN2v86String11NewFromUtf8EPNS_7IsolateEPKcNS_13NewStringTypeEi(ptr noundef %7, ptr noundef %call16, i32 noundef 0, i32 noundef %conv)
  %coerce.dive19 = getelementptr inbounds %"class.v8::MaybeLocal", ptr %retval, i32 0, i32 0
  %coerce.dive20 = getelementptr inbounds %"class.v8::Local", ptr %coerce.dive19, i32 0, i32 0
  %coerce.dive21 = getelementptr inbounds %"class.v8::LocalBase", ptr %coerce.dive20, i32 0, i32 0
  %coerce.dive22 = getelementptr inbounds %"class.v8::IndirectHandleBase", ptr %coerce.dive21, i32 0, i32 0
  store ptr %call18, ptr %coerce.dive22, align 8
  store i32 1, ptr %cleanup.dest.slot, align 4
  call void @_ZNSt7__cxx1112basic_stringIcSt11char_traitsIcESaIcEED1Ev(ptr noundef nonnull align 8 dereferenceable(32) %val) #3
  br label %cleanup

cleanup:                                          ; preds = %_ZNKR2v85MaybeINSt7__cxx1112basic_stringIcSt11char_traitsIcESaIcEEEE8FromJustEv.exit, %if.then
  call void @_ZN2v85MaybeINSt7__cxx1112basic_stringIcSt11char_traitsIcESaIcEEEED2Ev(ptr noundef nonnull align 8 dereferenceable(40) %value) #3
  call void @_ZN4node9Utf8ValueD2Ev(ptr noundef nonnull align 8 dereferenceable(1048) %str) #3
  %coerce.dive24 = getelementptr inbounds %"class.v8::MaybeLocal", ptr %retval, i32 0, i32 0
  %coerce.dive25 = getelementptr inbounds %"class.v8::Local", ptr %coerce.dive24, i32 0, i32 0
  %coerce.dive26 = getelementptr inbounds %"class.v8::LocalBase", ptr %coerce.dive25, i32 0, i32 0
  %coerce.dive27 = getelementptr inbounds %"class.v8::IndirectHandleBase", ptr %coerce.dive26, i32 0, i32 0
  %8 = load ptr, ptr %coerce.dive27, align 8
  ret ptr %8
}