; Function Attrs: mustprogress nounwind uwtable
define dso_local ptr @_ZNK4node10MapKVStore3GetEPN2v87IsolateENS1_5LocalINS1_6StringEEE(ptr noundef nonnull align 8 dereferenceable(104) %this, ptr noundef %isolate, ptr %key.coerce) unnamed_addr #3 align 2 {
entry:
  %str = alloca %"class.node::Utf8Value", align 8
  %value = alloca %"class.v8::Maybe", align 8
  %val = alloca %"class.std::__cxx11::basic_string", align 8
  call void @_ZN4node9Utf8ValueC1EPN2v87IsolateENS1_5LocalINS1_5ValueEEE(ptr noundef nonnull align 8 dereferenceable(1048) %str, ptr noundef %isolate, ptr %key.coerce) #20
  %buf_.i = getelementptr inbounds i8, ptr %str, i64 16
  %0 = load ptr, ptr %buf_.i, align 8
  call void @_ZNK4node10MapKVStore3GetB5cxx11EPKc(ptr nonnull sret(%"class.v8::Maybe") align 8 %value, ptr noundef nonnull align 8 dereferenceable(104) %this, ptr noundef %0)
  %1 = load i8, ptr %value, align 8
  %2 = and i8 %1, 1
  %tobool.i.not = icmp eq i8 %2, 0
  br i1 %tobool.i.not, label %cleanup, label %_ZNKR2v85MaybeINSt7__cxx1112basic_stringIcSt11char_traitsIcESaIcEEEE8FromJustEv.exit

_ZNKR2v85MaybeINSt7__cxx1112basic_stringIcSt11char_traitsIcESaIcEEEE8FromJustEv.exit: ; preds = %entry
  %value_.i = getelementptr inbounds i8, ptr %value, i64 8
  call void @_ZNSt7__cxx1112basic_stringIcSt11char_traitsIcESaIcEEC1ERKS4_(ptr noundef nonnull align 8 dereferenceable(32) %val, ptr noundef nonnull align 8 dereferenceable(32) %value_.i) #20
  %call16 = call noundef ptr @_ZNSt7__cxx1112basic_stringIcSt11char_traitsIcESaIcEE4dataEv(ptr noundef nonnull align 8 dereferenceable(32) %val) #20
  %call17 = call noundef i64 @_ZNKSt7__cxx1112basic_stringIcSt11char_traitsIcESaIcEE4sizeEv(ptr noundef nonnull align 8 dereferenceable(32) %val) #20
  %conv = trunc i64 %call17 to i32
  %call18 = call ptr @_ZN2v86String11NewFromUtf8EPNS_7IsolateEPKcNS_13NewStringTypeEi(ptr noundef %isolate, ptr noundef %call16, i32 noundef 0, i32 noundef %conv) #20
  call void @_ZNSt7__cxx1112basic_stringIcSt11char_traitsIcESaIcEED1Ev(ptr noundef nonnull align 8 dereferenceable(32) %val) #20
  br label %cleanup

cleanup:                                          ; preds = %entry, %_ZNKR2v85MaybeINSt7__cxx1112basic_stringIcSt11char_traitsIcESaIcEEEE8FromJustEv.exit
  %retval.sroa.0.0 = phi ptr [ %call18, %_ZNKR2v85MaybeINSt7__cxx1112basic_stringIcSt11char_traitsIcESaIcEEEE8FromJustEv.exit ], [ null, %entry ]
  %value_.i2 = getelementptr inbounds i8, ptr %value, i64 8
  call void @_ZNSt7__cxx1112basic_stringIcSt11char_traitsIcESaIcEED1Ev(ptr noundef nonnull align 8 dereferenceable(32) %value_.i2) #20
  %3 = load ptr, ptr %buf_.i, align 8
  %cmp.i.i.i.i = icmp ne ptr %3, null
  %buf_st_.i.i.i = getelementptr inbounds i8, ptr %str, i64 24
  %cmp.i.i.i = icmp ne ptr %3, %buf_st_.i.i.i
  %4 = select i1 %cmp.i.i.i.i, i1 %cmp.i.i.i, i1 false
  br i1 %4, label %if.then.i.i, label %_ZN4node9Utf8ValueD2Ev.exit

if.then.i.i:                                      ; preds = %cleanup
  call void @free(ptr noundef nonnull %3) #20
  br label %_ZN4node9Utf8ValueD2Ev.exit

_ZN4node9Utf8ValueD2Ev.exit:                      ; preds = %cleanup, %if.then.i.i
  ret ptr %retval.sroa.0.0
}